target datalayout = "e-m:e-p270:32:32-p271:32:32-p272:64:64-i64:64-i128:128-f80:128-n8:16:32:64-S128"
target triple = "x86_64-pc-linux-gnu"

%struct._object = type { %union.anon.41, ptr }
%union.anon.41 = type { i64 }
%struct.PyVarObject = type { %struct._object, i64 }
%struct._typeobject = type { %struct.PyVarObject, ptr, i64, i64, ptr, i64, ptr, ptr, ptr, ptr, ptr, ptr, ptr, ptr, ptr, ptr, ptr, ptr, ptr, i64, ptr, ptr, ptr, ptr, i64, ptr, ptr, ptr, ptr, ptr, ptr, ptr, ptr, ptr, i64, ptr, ptr, ptr, ptr, ptr, ptr, ptr, ptr, ptr, ptr, ptr, i32, ptr, ptr, i8, i16 }

@PyExc_TypeError = external global ptr, align 8
@_Py_NoneStruct = external global %struct._object, align 8
@.str.39 = private unnamed_addr constant [40 x i8] c"argument must be str or None, not %.50s\00", align 1

; Function Attrs: inlinehint nounwind uwtable
define internal i32 @PyType_HasFeature(ptr noundef %0, i64 noundef %1) #2 {
  %3 = alloca ptr, align 8
  %4 = alloca i64, align 8
  %5 = alloca i64, align 8
  store ptr %0, ptr %3, align 8, !tbaa !196
  store i64 %1, ptr %4, align 8, !tbaa !185
  call void @llvm.lifetime.start.p0(i64 8, ptr %5) #12
  %6 = load ptr, ptr %3, align 8, !tbaa !196
  %7 = getelementptr inbounds nuw %struct._typeobject, ptr %6, i32 0, i32 19
  %8 = load i64, ptr %7, align 8, !tbaa !197
  store i64 %8, ptr %5, align 8, !tbaa !185
  %9 = load i64, ptr %5, align 8, !tbaa !185
  %10 = load i64, ptr %4, align 8, !tbaa !185
  %11 = and i64 %9, %10
  %12 = icmp ne i64 %11, 0
  %13 = zext i1 %12 to i32
  call void @llvm.lifetime.end.p0(i64 8, ptr %5) #12
  ret i32 %13
}

; Function Attrs: inlinehint nounwind uwtable
define internal ptr @_Py_TYPE(ptr noundef %0) #2 {
  %2 = alloca ptr, align 8
  store ptr %0, ptr %2, align 8, !tbaa !4
  %3 = load ptr, ptr %2, align 8, !tbaa !4
  %4 = getelementptr inbounds nuw %struct._object, ptr %3, i32 0, i32 1
  %5 = load ptr, ptr %4, align 8, !tbaa !202
  ret ptr %5
}

; Function Attrs: nounwind uwtable
define hidden i32 @_PyUnicode_WideCharString_Opt_Converter(ptr noundef %0, ptr noundef %1) #0 {
  %3 = alloca i32, align 4
  %4 = alloca ptr, align 8
  %5 = alloca ptr, align 8
  %6 = alloca ptr, align 8
  %7 = alloca i32, align 4
  store ptr %0, ptr %4, align 8, !tbaa !4
  store ptr %1, ptr %5, align 8, !tbaa !180
  call void @llvm.lifetime.start.p0(i64 8, ptr %6) #12
  %8 = load ptr, ptr %5, align 8, !tbaa !180
  store ptr %8, ptr %6, align 8, !tbaa !283
  %9 = load ptr, ptr %4, align 8, !tbaa !4
  %10 = icmp eq ptr %9, null
  br i1 %10, label %11, label %15

11:                                               ; preds = %2
  %12 = load ptr, ptr %6, align 8, !tbaa !283
  %13 = load ptr, ptr %12, align 8, !tbaa !210
  call void @PyMem_Free(ptr noundef %13)
  %14 = load ptr, ptr %6, align 8, !tbaa !283
  store ptr null, ptr %14, align 8, !tbaa !210
  store i32 1, ptr %3, align 4
  store i32 1, ptr %7, align 4
  br label %41

15:                                               ; preds = %2
  %16 = load ptr, ptr %4, align 8, !tbaa !4
  %17 = icmp eq ptr %16, @_Py_NoneStruct
  br i1 %17, label %18, label %20

18:                                               ; preds = %15
  %19 = load ptr, ptr %6, align 8, !tbaa !283
  store ptr null, ptr %19, align 8, !tbaa !210
  store i32 1, ptr %3, align 4
  store i32 1, ptr %7, align 4
  br label %41

20:                                               ; preds = %15
  %21 = load ptr, ptr %4, align 8, !tbaa !4
  %22 = call ptr @_Py_TYPE(ptr noundef %21)
  %23 = call i32 @PyType_HasFeature(ptr noundef %22, i64 noundef 268435456)
  %24 = icmp ne i32 %23, 0
  br i1 %24, label %25, label %34

25:                                               ; preds = %20
  %26 = load ptr, ptr %4, align 8, !tbaa !4
  %27 = call ptr @PyUnicode_AsWideCharString(ptr noundef %26, ptr noundef null)
  %28 = load ptr, ptr %6, align 8, !tbaa !283
  store ptr %27, ptr %28, align 8, !tbaa !210
  %29 = load ptr, ptr %6, align 8, !tbaa !283
  %30 = load ptr, ptr %29, align 8, !tbaa !210
  %31 = icmp eq ptr %30, null
  br i1 %31, label %32, label %33

32:                                               ; preds = %25
  store i32 0, ptr %3, align 4
  store i32 1, ptr %7, align 4
  br label %41

33:                                               ; preds = %25
  store i32 131072, ptr %3, align 4
  store i32 1, ptr %7, align 4
  br label %41

34:                                               ; preds = %20
  %35 = load ptr, ptr @PyExc_TypeError, align 8, !tbaa !4
  %36 = load ptr, ptr %4, align 8, !tbaa !4
  %37 = call ptr @_Py_TYPE(ptr noundef %36)
  %38 = getelementptr inbounds nuw %struct._typeobject, ptr %37, i32 0, i32 1
  %39 = load ptr, ptr %38, align 8, !tbaa !284
  %40 = call ptr (ptr, ptr, ...) @PyErr_Format(ptr noundef %35, ptr noundef @.str.39, ptr noundef %39)
  store i32 0, ptr %3, align 4
  store i32 1, ptr %7, align 4
  br label %41

41:                                               ; preds = %34, %33, %32, %18, %11
  call void @llvm.lifetime.end.p0(i64 8, ptr %6) #12
  %42 = load i32, ptr %3, align 4
  ret i32 %42
}