; Function Attrs: nounwind uwtable
define hidden range(i32 0, 131073) i32 @_PyUnicode_WideCharString_Opt_Converter(ptr noundef %0, ptr noundef captures(none) %1) local_unnamed_addr #0 {
  %3 = icmp eq ptr %0, null
  br i1 %3, label %4, label %6

4:                                                ; preds = %2
  %5 = load ptr, ptr %1, align 8, !tbaa !262
  tail call void @PyMem_Free(ptr noundef %5) #41
  store ptr null, ptr %1, align 8, !tbaa !262
  br label %21

6:                                                ; preds = %2
  %7 = icmp eq ptr %0, @_Py_NoneStruct
  br i1 %7, label %8, label %9

8:                                                ; preds = %6
  store ptr null, ptr %1, align 8, !tbaa !262
  br label %21

9:                                                ; preds = %6
  %10 = getelementptr i8, ptr %0, i64 8
  %.val12 = load ptr, ptr %10, align 8, !tbaa !187
  %11 = getelementptr i8, ptr %.val12, i64 168
  %.val13 = load i64, ptr %11, align 8, !tbaa !188
  %12 = and i64 %.val13, 268435456
  %.not = icmp eq i64 %12, 0
  br i1 %.not, label %16, label %13

13:                                               ; preds = %9
  %14 = tail call ptr @PyUnicode_AsWideCharString(ptr noundef nonnull %0, ptr noundef null)
  store ptr %14, ptr %1, align 8, !tbaa !262
  %15 = icmp eq ptr %14, null
  %. = select i1 %15, i32 0, i32 131072
  br label %21

16:                                               ; preds = %9
  %17 = load ptr, ptr @PyExc_TypeError, align 8, !tbaa !183
  %18 = getelementptr inbounds nuw i8, ptr %.val12, i64 24
  %19 = load ptr, ptr %18, align 8, !tbaa !267
  %20 = tail call ptr (ptr, ptr, ...) @PyErr_Format(ptr noundef %17, ptr noundef nonnull @.str.39, ptr noundef %19) #41
  br label %21

21:                                               ; preds = %13, %16, %8, %4
  %.0 = phi i32 [ 1, %4 ], [ 1, %8 ], [ 0, %16 ], [ %., %13 ]
  ret i32 %.0
}